; Function Attrs: mustprogress uwtable
define noundef ptr @Z3_mk_set_sort(ptr noundef %c, ptr noundef %ty) local_unnamed_addr #3 personality ptr @__gxx_personality_v0 {
entry:
  %call = invoke ptr @Z3_mk_bool_sort(ptr noundef %c)
          to label %invoke.cont unwind label %lpad

invoke.cont:                                      ; preds = %entry
  %call2 = invoke ptr @Z3_mk_array_sort(ptr noundef %c, ptr noundef %ty, ptr noundef %call)
          to label %return unwind label %lpad

lpad:                                             ; preds = %invoke.cont, %entry
  %0 = landingpad { ptr, i32 }
          catch ptr @_ZTI12z3_exception
  %1 = extractvalue { ptr, i32 } %0, 1
  %2 = tail call i32 @llvm.eh.typeid.for(ptr nonnull @_ZTI12z3_exception) #13
  %matches = icmp eq i32 %1, %2
  br i1 %matches, label %catch, label %eh.resume

catch:                                            ; preds = %lpad
  %3 = extractvalue { ptr, i32 } %0, 0
  %4 = tail call ptr @__cxa_begin_catch(ptr %3) #13
  invoke void @_ZN3api7context16handle_exceptionER12z3_exception(ptr noundef nonnull align 8 dereferenceable(3048) %c, ptr noundef nonnull align 8 dereferenceable(8) %4)
          to label %invoke.cont6 unwind label %lpad3

invoke.cont6:                                     ; preds = %catch
  tail call void @__cxa_end_catch()
  br label %return

lpad3:                                            ; preds = %catch
  %5 = landingpad { ptr, i32 }
          cleanup
  invoke void @__cxa_end_catch()
          to label %eh.resume unwind label %terminate.lpad

return:                                           ; preds = %invoke.cont, %invoke.cont6
  %retval.0 = phi ptr [ null, %invoke.cont6 ], [ %call2, %invoke.cont ]
  ret ptr %retval.0

eh.resume:                                        ; preds = %lpad3, %lpad
  %lpad.val10.merged = phi { ptr, i32 } [ %5, %lpad3 ], [ %0, %lpad ]
  resume { ptr, i32 } %lpad.val10.merged

terminate.lpad:                                   ; preds = %lpad3
  %6 = landingpad { ptr, i32 }
          catch ptr null
  %7 = extractvalue { ptr, i32 } %6, 0
  tail call void @__clang_call_terminate(ptr %7) #14
  unreachable
}